; Function Attrs: mustprogress uwtable
define hidden void @_ZNK3smt17theory_array_full11display_varERSoi(ptr noundef nonnull align 8 dereferenceable(608) %this, ptr noundef nonnull align 8 dereferenceable(8) %out, i32 noundef %v) unnamed_addr #3 align 2 {
entry:
  tail call void @_ZNK3smt12theory_array11display_varERSoi(ptr noundef nonnull align 8 dereferenceable(444) %this, ptr noundef nonnull align 8 dereferenceable(8) %out, i32 noundef %v)
  %m_var_data_full = getelementptr inbounds i8, ptr %this, i64 448
  %0 = load ptr, ptr %m_var_data_full, align 8
  %idxprom.i = zext i32 %v to i64
  %arrayidx.i = getelementptr inbounds ptr, ptr %0, i64 %idxprom.i
  %1 = load ptr, ptr %arrayidx.i, align 8
  %call2 = tail call noundef nonnull align 8 dereferenceable(8) ptr @_ZStlsISt11char_traitsIcEERSt13basic_ostreamIcT_ES5_PKc(ptr noundef nonnull align 8 dereferenceable(8) %out, ptr noundef nonnull @.str)
  %2 = load ptr, ptr %1, align 8
  %cmp.i = icmp eq ptr %2, null
  br i1 %cmp.i, label %_ZNK6vectorIPN3smt5enodeELb0EjE4sizeEv.exit, label %if.end.i

if.end.i:                                         ; preds = %entry
  %arrayidx.i14 = getelementptr inbounds i8, ptr %2, i64 -4
  %3 = load i32, ptr %arrayidx.i14, align 4
  br label %_ZNK6vectorIPN3smt5enodeELb0EjE4sizeEv.exit

_ZNK6vectorIPN3smt5enodeELb0EjE4sizeEv.exit:      ; preds = %entry, %if.end.i
  %retval.0.i = phi i32 [ %3, %if.end.i ], [ 0, %entry ]
  tail call void @_ZN3smt12theory_array11display_idsERSojPKPNS_5enodeE(ptr noundef nonnull align 8 dereferenceable(8) %out, i32 noundef %retval.0.i, ptr noundef %2)
  %call6 = tail call noundef nonnull align 8 dereferenceable(8) ptr @_ZStlsISt11char_traitsIcEERSt13basic_ostreamIcT_ES5_PKc(ptr noundef nonnull align 8 dereferenceable(8) %out, ptr noundef nonnull @.str.7)
  %m_parent_maps = getelementptr inbounds i8, ptr %1, i64 32
  %4 = load ptr, ptr %m_parent_maps, align 8
  %cmp.i15 = icmp eq ptr %4, null
  br i1 %cmp.i15, label %_ZNK6vectorIPN3smt5enodeELb0EjE4sizeEv.exit19, label %if.end.i16

if.end.i16:                                       ; preds = %_ZNK6vectorIPN3smt5enodeELb0EjE4sizeEv.exit
  %arrayidx.i17 = getelementptr inbounds i8, ptr %4, i64 -4
  %5 = load i32, ptr %arrayidx.i17, align 4
  br label %_ZNK6vectorIPN3smt5enodeELb0EjE4sizeEv.exit19

_ZNK6vectorIPN3smt5enodeELb0EjE4sizeEv.exit19:    ; preds = %_ZNK6vectorIPN3smt5enodeELb0EjE4sizeEv.exit, %if.end.i16
  %retval.0.i18 = phi i32 [ %5, %if.end.i16 ], [ 0, %_ZNK6vectorIPN3smt5enodeELb0EjE4sizeEv.exit ]
  tail call void @_ZN3smt12theory_array11display_idsERSojPKPNS_5enodeE(ptr noundef nonnull align 8 dereferenceable(8) %out, i32 noundef %retval.0.i18, ptr noundef %4)
  %call10 = tail call noundef nonnull align 8 dereferenceable(8) ptr @_ZStlsISt11char_traitsIcEERSt13basic_ostreamIcT_ES5_PKc(ptr noundef nonnull align 8 dereferenceable(8) %out, ptr noundef nonnull @.str.8)
  %m_consts = getelementptr inbounds i8, ptr %1, i64 8
  %6 = load ptr, ptr %m_consts, align 8
  %cmp.i20 = icmp eq ptr %6, null
  br i1 %cmp.i20, label %_ZNK6vectorIPN3smt5enodeELb0EjE4sizeEv.exit24, label %if.end.i21

if.end.i21:                                       ; preds = %_ZNK6vectorIPN3smt5enodeELb0EjE4sizeEv.exit19
  %arrayidx.i22 = getelementptr inbounds i8, ptr %6, i64 -4
  %7 = load i32, ptr %arrayidx.i22, align 4
  br label %_ZNK6vectorIPN3smt5enodeELb0EjE4sizeEv.exit24

_ZNK6vectorIPN3smt5enodeELb0EjE4sizeEv.exit24:    ; preds = %_ZNK6vectorIPN3smt5enodeELb0EjE4sizeEv.exit19, %if.end.i21
  %retval.0.i23 = phi i32 [ %7, %if.end.i21 ], [ 0, %_ZNK6vectorIPN3smt5enodeELb0EjE4sizeEv.exit19 ]
  tail call void @_ZN3smt12theory_array11display_idsERSojPKPNS_5enodeE(ptr noundef nonnull align 8 dereferenceable(8) %out, i32 noundef %retval.0.i23, ptr noundef %6)
  %call14 = tail call noundef nonnull align 8 dereferenceable(8) ptr @_ZStlsISt11char_traitsIcEERSt13basic_ostreamIcT_ES5_PKc(ptr noundef nonnull align 8 dereferenceable(8) %out, ptr noundef nonnull @.str.9)
  ret void
}